target datalayout = "e-m:e-p270:32:32-p271:32:32-p272:64:64-i64:64-i128:128-f80:128-n8:16:32:64-S128"
target triple = "x86_64-pc-linux-gnu"

%struct.connectdata = type { %struct.Curl_llist_node, ptr, ptr, i64, ptr, i64, ptr, ptr, %struct.hostname, ptr, ptr, %struct.hostname, %struct.proxy_info, %struct.proxy_info, %struct.ip_quadruple, %struct.ip_quadruple, ptr, ptr, ptr, ptr, ptr, %struct.curltime, %struct.curltime, %struct.curltime, [2 x i32], [2 x ptr], [2 x ptr], [2 x ptr], %struct.anon, %struct.easy_pollset, %struct.ssl_primary_config, %struct.ssl_primary_config, %struct.ConnectBits, ptr, ptr, %struct.curltime, i32, i32, %struct.Curl_llist, i32, i32, %struct.ntlmdata, %struct.ntlmdata, %union.anon.1, ptr, ptr, i16, i32, i32, i32, i32, i16, i16, i8, i8, i8, i8, i8, i8, i8 }
%struct.Curl_llist_node = type { ptr, ptr, ptr, ptr }
%struct.hostname = type { ptr, ptr, ptr, ptr }
%struct.proxy_info = type { %struct.hostname, i32, i8, ptr, ptr }
%struct.ip_quadruple = type { [46 x i8], [46 x i8], i32, i32 }
%struct.anon = type { [2 x %struct.curltime], i32 }
%struct.easy_pollset = type { [5 x i32], i32, [5 x i8] }
%struct.ssl_primary_config = type { ptr, ptr, ptr, ptr, ptr, ptr, ptr, ptr, ptr, ptr, ptr, ptr, ptr, ptr, i8, i32, i8, i8 }
%struct.ConnectBits = type { i64 }
%struct.curltime = type { i64, i32 }
%struct.Curl_llist = type { ptr, ptr, ptr, i64 }
%struct.ntlmdata = type { i32, [8 x i8], i32, ptr }
%union.anon.1 = type { %struct.ftp_conn }
%struct.ftp_conn = type { %struct.pingpong, ptr, ptr, ptr, ptr, ptr, ptr, ptr, i8, i64, ptr, i64, i32, i32, i32, i32, i32, i16, i8, i8, i8, i8, i8 }
%struct.pingpong = type { i64, i8, ptr, i64, i64, %struct.curltime, i64, %struct.dynbuf, %struct.dynbuf, i64, i64, ptr, ptr }
%struct.dynbuf = type { ptr, i64, i64, i64 }
%struct.Curl_easy = type { i32, i64, i64, ptr, %struct.Curl_llist_node, %struct.Curl_llist_node, i32, i32, %struct.Curl_message, %struct.easy_pollset, %struct.Names, ptr, ptr, ptr, ptr, %struct.SingleRequest, %struct.UserDefined, ptr, ptr, ptr, %struct.Progress, %struct.UrlState, ptr, %struct.PureInfo, %struct.curl_tlssessioninfo }
%struct.Curl_message = type { %struct.Curl_llist_node, %struct.CURLMsg }
%struct.CURLMsg = type { i32, ptr, %union.anon }
%union.anon = type { ptr }
%struct.Names = type { ptr, i32 }
%struct.SingleRequest = type <{ i64, i64, i64, i64, %struct.curltime, i32, i32, i32, i32, i64, i32, i32, i8, i8, [2 x i8], i32, ptr, ptr, %struct.bufq, i64, i64, ptr, ptr, %union.anon.0, ptr, i8, i32, [3 x i8] }>
%struct.bufq = type { ptr, ptr, ptr, ptr, i64, i64, i64, i32 }
%union.anon.0 = type { ptr }
%struct.UserDefined = type <{ ptr, ptr, ptr, ptr, ptr, ptr, i64, i64, i64, ptr, ptr, i64, ptr, ptr, ptr, ptr, ptr, ptr, ptr, ptr, ptr, ptr, ptr, ptr, ptr, ptr, ptr, ptr, ptr, ptr, ptr, ptr, ptr, ptr, ptr, i64, i64, i64, i64, i64, i64, i64, i64, i64, ptr, ptr, %struct.curl_mimepart, ptr, ptr, ptr, i64, %struct.ssl_config_data, %struct.ssl_config_data, ptr, i16, i8, i8, %struct.ssl_general_config, i32, i32, i32, [4 x i8], ptr, ptr, i64, i32, i8, i8, i8, i8, ptr, ptr, ptr, i32, [4 x i8], [74 x ptr], [8 x ptr], i32, i32, i32, [4 x i8], ptr, i32, [4 x i8], ptr, ptr, ptr, ptr, ptr, i32, i32, i32, i32, i32, i32, i32, i32, i64, ptr, ptr, i64, ptr, i64, ptr, ptr, ptr, ptr, i32, i16, i16, i16, i8, i8, i8, i8, i8, i8, i8, i8, i64, [6 x i8] }>
%struct.curl_mimepart = type { ptr, ptr, i32, i32, ptr, ptr, ptr, ptr, ptr, ptr, ptr, ptr, ptr, ptr, ptr, i64, %struct.mime_state, ptr, %struct.mime_encoder_state, i64 }
%struct.mime_state = type { i32, ptr, i64 }
%struct.mime_encoder_state = type { i64, i64, i64, [256 x i8] }
%struct.ssl_config_data = type { %struct.ssl_primary_config, i64, ptr, ptr, ptr, ptr, ptr, ptr, ptr, i16 }
%struct.ssl_general_config = type { i32 }
%struct.Progress = type { i64, %struct.pgrs_dir, %struct.pgrs_dir, i64, i64, i32, i32, i64, i64, i64, i64, i64, i64, i64, i64, i64, %struct.curltime, %struct.curltime, %struct.curltime, %struct.curltime, %struct.curltime, [6 x i64], [6 x %struct.curltime], i32, i8 }
%struct.pgrs_dir = type { i64, i64, i64, %struct.pgrs_measure }
%struct.pgrs_measure = type { %struct.curltime, i64 }
%struct.UrlState = type { %struct.curltime, i64, i64, %struct.dynbuf, ptr, i64, ptr, i32, i32, i32, ptr, i32, i64, i32, ptr, %struct.digestdata, %struct.digestdata, %struct.auth, %struct.auth, %struct.Curl_async, ptr, i8, %struct.curltime, %struct.Curl_tree, %struct.Curl_llist, [15 x %struct.time_node], ptr, ptr, i64, i64, i64, i64, [32 x i8], i64, ptr, ptr, ptr, %struct.urlpieces, ptr, ptr, ptr, ptr, ptr, i64, %struct.dynbuf, %struct.Curl_llist, [2 x %struct.curl_header], ptr, i32, ptr, ptr, %struct.store_netrc, %struct.dynamically_allocated_data, i8, i8, i8, i8, i32 }
%struct.digestdata = type { ptr, ptr, ptr, ptr, ptr, ptr, i32, i8, i8 }
%struct.auth = type { i64, i64, i64, i8 }
%struct.Curl_async = type { ptr, ptr, ptr, ptr, i32, i32, i8 }
%struct.Curl_tree = type { ptr, ptr, ptr, ptr, %struct.curltime, ptr }
%struct.time_node = type { %struct.Curl_llist_node, %struct.curltime, i32 }
%struct.urlpieces = type { ptr, ptr, ptr, ptr, ptr, ptr, ptr, ptr }
%struct.curl_header = type { ptr, ptr, i64, i64, i32, ptr }
%struct.store_netrc = type { %struct.dynbuf, ptr, i8 }
%struct.dynamically_allocated_data = type { ptr, ptr, ptr, ptr, ptr, ptr, ptr, ptr, ptr, ptr, ptr, ptr, ptr, ptr }
%struct.PureInfo = type { i32, i32, i32, i64, i64, i64, i64, i64, i64, i64, ptr, ptr, i64, i32, %struct.ip_quadruple, i32, ptr, i32, %struct.curl_certinfo, i32, i8 }
%struct.curl_certinfo = type { i32, ptr }
%struct.curl_tlssessioninfo = type { i32, ptr }
%struct.Curl_cwriter = type { ptr, ptr, ptr, i32 }
%struct.ftp_cw_lc_ctx = type { %struct.Curl_cwriter, i8 }

@ftp_cw_lc_write.nl = internal constant i8 10, align 1

; Function Attrs: nounwind uwtable
define internal i32 @ftp_cw_lc_write(ptr noundef %0, ptr noundef %1, i32 noundef %2, ptr noundef %3, i64 noundef %4) #0 {
  %6 = alloca i32, align 4
  %7 = alloca ptr, align 8
  %8 = alloca ptr, align 8
  %9 = alloca i32, align 4
  %10 = alloca ptr, align 8
  %11 = alloca i64, align 8
  %12 = alloca ptr, align 8
  %13 = alloca i32, align 4
  %14 = alloca i32, align 4
  %15 = alloca ptr, align 8
  %16 = alloca i64, align 8
  %17 = alloca i32, align 4
  store ptr %0, ptr %7, align 8, !tbaa !3
  store ptr %1, ptr %8, align 8, !tbaa !117
  store i32 %2, ptr %9, align 4, !tbaa !10
  store ptr %3, ptr %10, align 8, !tbaa !17
  store i64 %4, ptr %11, align 8, !tbaa !124
  call void @llvm.lifetime.start.p0(i64 8, ptr %12) #9
  %18 = load ptr, ptr %8, align 8, !tbaa !117
  %19 = getelementptr inbounds nuw %struct.Curl_cwriter, ptr %18, i32 0, i32 2
  %20 = load ptr, ptr %19, align 8, !tbaa !275
  store ptr %20, ptr %12, align 8, !tbaa !278
  %21 = load i32, ptr %9, align 4, !tbaa !10
  %22 = and i32 %21, 1
  %23 = icmp ne i32 %22, 0
  br i1 %23, label %24, label %33

24:                                               ; preds = %5
  %25 = load ptr, ptr %7, align 8, !tbaa !3
  %26 = getelementptr inbounds nuw %struct.Curl_easy, ptr %25, i32 0, i32 3
  %27 = load ptr, ptr %26, align 8, !tbaa !115
  %28 = getelementptr inbounds nuw %struct.connectdata, ptr %27, i32 0, i32 43
  %29 = getelementptr inbounds nuw %struct.ftp_conn, ptr %28, i32 0, i32 8
  %30 = load i8, ptr %29, align 8, !tbaa !29
  %31 = sext i8 %30 to i32
  %32 = icmp ne i32 %31, 65
  br i1 %32, label %33, label %42

33:                                               ; preds = %24, %5
  %34 = load ptr, ptr %7, align 8, !tbaa !3
  %35 = load ptr, ptr %8, align 8, !tbaa !117
  %36 = getelementptr inbounds nuw %struct.Curl_cwriter, ptr %35, i32 0, i32 1
  %37 = load ptr, ptr %36, align 8, !tbaa !280
  %38 = load i32, ptr %9, align 4, !tbaa !10
  %39 = load ptr, ptr %10, align 8, !tbaa !17
  %40 = load i64, ptr %11, align 8, !tbaa !124
  %41 = call i32 @Curl_cwriter_write(ptr noundef %34, ptr noundef %37, i32 noundef %38, ptr noundef %39, i64 noundef %40)
  store i32 %41, ptr %6, align 4
  store i32 1, ptr %13, align 4
  br label %158

42:                                               ; preds = %24
  br label %43

43:                                               ; preds = %114, %42
  %44 = load i64, ptr %11, align 8, !tbaa !124
  %45 = icmp ne i64 %44, 0
  br i1 %45, label %46, label %115

46:                                               ; preds = %43
  call void @llvm.lifetime.start.p0(i64 4, ptr %14) #9
  %47 = load i32, ptr %9, align 4, !tbaa !10
  %48 = and i32 %47, -129
  store i32 %48, ptr %14, align 4, !tbaa !10
  call void @llvm.lifetime.start.p0(i64 8, ptr %15) #9
  call void @llvm.lifetime.start.p0(i64 8, ptr %16) #9
  call void @llvm.lifetime.start.p0(i64 4, ptr %17) #9
  %49 = load ptr, ptr %12, align 8, !tbaa !278
  %50 = getelementptr inbounds nuw %struct.ftp_cw_lc_ctx, ptr %49, i32 0, i32 1
  %51 = load i8, ptr %50, align 8, !tbaa !281, !range !125, !noundef !126
  %52 = trunc i8 %51 to i1
  br i1 %52, label %53, label %74

53:                                               ; preds = %46
  %54 = load ptr, ptr %10, align 8, !tbaa !17
  %55 = getelementptr inbounds i8, ptr %54, i64 0
  %56 = load i8, ptr %55, align 1, !tbaa !29
  %57 = sext i8 %56 to i32
  %58 = icmp ne i32 %57, 10
  br i1 %58, label %59, label %71

59:                                               ; preds = %53
  %60 = load ptr, ptr %7, align 8, !tbaa !3
  %61 = load ptr, ptr %8, align 8, !tbaa !117
  %62 = getelementptr inbounds nuw %struct.Curl_cwriter, ptr %61, i32 0, i32 1
  %63 = load ptr, ptr %62, align 8, !tbaa !280
  %64 = load i32, ptr %14, align 4, !tbaa !10
  %65 = call i32 @Curl_cwriter_write(ptr noundef %60, ptr noundef %63, i32 noundef %64, ptr noundef @ftp_cw_lc_write.nl, i64 noundef 1)
  store i32 %65, ptr %17, align 4, !tbaa !10
  %66 = load i32, ptr %17, align 4, !tbaa !10
  %67 = icmp ne i32 %66, 0
  br i1 %67, label %68, label %70

68:                                               ; preds = %59
  %69 = load i32, ptr %17, align 4, !tbaa !10
  store i32 %69, ptr %6, align 4
  store i32 1, ptr %13, align 4
  br label %112

70:                                               ; preds = %59
  br label %71

71:                                               ; preds = %70, %53
  %72 = load ptr, ptr %12, align 8, !tbaa !278
  %73 = getelementptr inbounds nuw %struct.ftp_cw_lc_ctx, ptr %72, i32 0, i32 1
  store i8 0, ptr %73, align 8, !tbaa !281
  br label %74

74:                                               ; preds = %71, %46
  %75 = load ptr, ptr %10, align 8, !tbaa !17
  %76 = load i64, ptr %11, align 8, !tbaa !124
  %77 = call ptr @memchr(ptr noundef %75, i32 noundef 13, i64 noundef %76) #10
  store ptr %77, ptr %15, align 8, !tbaa !17
  %78 = load ptr, ptr %15, align 8, !tbaa !17
  %79 = icmp ne ptr %78, null
  br i1 %79, label %81, label %80

80:                                               ; preds = %74
  store i32 3, ptr %13, align 4
  br label %112

81:                                               ; preds = %74
  %82 = load ptr, ptr %15, align 8, !tbaa !17
  %83 = load ptr, ptr %10, align 8, !tbaa !17
  %84 = ptrtoint ptr %82 to i64
  %85 = ptrtoint ptr %83 to i64
  %86 = sub i64 %84, %85
  store i64 %86, ptr %16, align 8, !tbaa !124
  %87 = load i64, ptr %16, align 8, !tbaa !124
  %88 = icmp ne i64 %87, 0
  br i1 %88, label %89, label %103

89:                                               ; preds = %81
  %90 = load ptr, ptr %7, align 8, !tbaa !3
  %91 = load ptr, ptr %8, align 8, !tbaa !117
  %92 = getelementptr inbounds nuw %struct.Curl_cwriter, ptr %91, i32 0, i32 1
  %93 = load ptr, ptr %92, align 8, !tbaa !280
  %94 = load i32, ptr %14, align 4, !tbaa !10
  %95 = load ptr, ptr %10, align 8, !tbaa !17
  %96 = load i64, ptr %16, align 8, !tbaa !124
  %97 = call i32 @Curl_cwriter_write(ptr noundef %90, ptr noundef %93, i32 noundef %94, ptr noundef %95, i64 noundef %96)
  store i32 %97, ptr %17, align 4, !tbaa !10
  %98 = load i32, ptr %17, align 4, !tbaa !10
  %99 = icmp ne i32 %98, 0
  br i1 %99, label %100, label %102

100:                                              ; preds = %89
  %101 = load i32, ptr %17, align 4, !tbaa !10
  store i32 %101, ptr %6, align 4
  store i32 1, ptr %13, align 4
  br label %112

102:                                              ; preds = %89
  br label %103

103:                                              ; preds = %102, %81
  %104 = load ptr, ptr %15, align 8, !tbaa !17
  %105 = getelementptr inbounds i8, ptr %104, i64 1
  store ptr %105, ptr %10, align 8, !tbaa !17
  %106 = load i64, ptr %11, align 8, !tbaa !124
  %107 = load i64, ptr %16, align 8, !tbaa !124
  %108 = sub i64 %106, %107
  %109 = sub i64 %108, 1
  store i64 %109, ptr %11, align 8, !tbaa !124
  %110 = load ptr, ptr %12, align 8, !tbaa !278
  %111 = getelementptr inbounds nuw %struct.ftp_cw_lc_ctx, ptr %110, i32 0, i32 1
  store i8 1, ptr %111, align 8, !tbaa !281
  store i32 0, ptr %13, align 4
  br label %112

112:                                              ; preds = %103, %100, %80, %68
  call void @llvm.lifetime.end.p0(i64 4, ptr %17) #9
  call void @llvm.lifetime.end.p0(i64 8, ptr %16) #9
  call void @llvm.lifetime.end.p0(i64 8, ptr %15) #9
  call void @llvm.lifetime.end.p0(i64 4, ptr %14) #9
  %113 = load i32, ptr %13, align 4
  switch i32 %113, label %158 [
    i32 0, label %114
    i32 3, label %115
  ]

114:                                              ; preds = %112
  br label %43, !llvm.loop !283

115:                                              ; preds = %112, %43
  %116 = load i64, ptr %11, align 8, !tbaa !124
  %117 = icmp ne i64 %116, 0
  br i1 %117, label %118, label %130

118:                                              ; preds = %115
  br label %119

119:                                              ; preds = %118
  br label %120

120:                                              ; preds = %119
  br label %121

121:                                              ; preds = %120
  %122 = load ptr, ptr %7, align 8, !tbaa !3
  %123 = load ptr, ptr %8, align 8, !tbaa !117
  %124 = getelementptr inbounds nuw %struct.Curl_cwriter, ptr %123, i32 0, i32 1
  %125 = load ptr, ptr %124, align 8, !tbaa !280
  %126 = load i32, ptr %9, align 4, !tbaa !10
  %127 = load ptr, ptr %10, align 8, !tbaa !17
  %128 = load i64, ptr %11, align 8, !tbaa !124
  %129 = call i32 @Curl_cwriter_write(ptr noundef %122, ptr noundef %125, i32 noundef %126, ptr noundef %127, i64 noundef %128)
  store i32 %129, ptr %6, align 4
  store i32 1, ptr %13, align 4
  br label %158

130:                                              ; preds = %115
  %131 = load i32, ptr %9, align 4, !tbaa !10
  %132 = and i32 %131, 128
  %133 = icmp ne i32 %132, 0
  br i1 %133, label %134, label %156

134:                                              ; preds = %130
  %135 = load ptr, ptr %12, align 8, !tbaa !278
  %136 = getelementptr inbounds nuw %struct.ftp_cw_lc_ctx, ptr %135, i32 0, i32 1
  %137 = load i8, ptr %136, align 8, !tbaa !281, !range !125, !noundef !126
  %138 = trunc i8 %137 to i1
  br i1 %138, label %139, label %148

139:                                              ; preds = %134
  %140 = load ptr, ptr %12, align 8, !tbaa !278
  %141 = getelementptr inbounds nuw %struct.ftp_cw_lc_ctx, ptr %140, i32 0, i32 1
  store i8 0, ptr %141, align 8, !tbaa !281
  %142 = load ptr, ptr %7, align 8, !tbaa !3
  %143 = load ptr, ptr %8, align 8, !tbaa !117
  %144 = getelementptr inbounds nuw %struct.Curl_cwriter, ptr %143, i32 0, i32 1
  %145 = load ptr, ptr %144, align 8, !tbaa !280
  %146 = load i32, ptr %9, align 4, !tbaa !10
  %147 = call i32 @Curl_cwriter_write(ptr noundef %142, ptr noundef %145, i32 noundef %146, ptr noundef @ftp_cw_lc_write.nl, i64 noundef 1)
  store i32 %147, ptr %6, align 4
  store i32 1, ptr %13, align 4
  br label %158

148:                                              ; preds = %134
  %149 = load ptr, ptr %7, align 8, !tbaa !3
  %150 = load ptr, ptr %8, align 8, !tbaa !117
  %151 = getelementptr inbounds nuw %struct.Curl_cwriter, ptr %150, i32 0, i32 1
  %152 = load ptr, ptr %151, align 8, !tbaa !280
  %153 = load i32, ptr %9, align 4, !tbaa !10
  %154 = load ptr, ptr %10, align 8, !tbaa !17
  %155 = call i32 @Curl_cwriter_write(ptr noundef %149, ptr noundef %152, i32 noundef %153, ptr noundef %154, i64 noundef 0)
  store i32 %155, ptr %6, align 4
  store i32 1, ptr %13, align 4
  br label %158

156:                                              ; preds = %130
  br label %157

157:                                              ; preds = %156
  store i32 0, ptr %6, align 4
  store i32 1, ptr %13, align 4
  br label %158

158:                                              ; preds = %157, %148, %139, %121, %112, %33
  call void @llvm.lifetime.end.p0(i64 8, ptr %12) #9
  %159 = load i32, ptr %6, align 4
  ret i32 %159
}