; Function Attrs: nounwind uwtable
define internal i32 @ftp_cw_lc_write(ptr noundef %0, ptr noundef readonly captures(none) %1, i32 noundef %2, ptr noundef %3, i64 noundef %4) #0 {
  %6 = getelementptr inbounds nuw i8, ptr %1, i64 16
  %7 = load ptr, ptr %6, align 8, !tbaa !237
  %8 = and i32 %2, 1
  %.not = icmp eq i32 %8, 0
  br i1 %.not, label %18, label %9

9:                                                ; preds = %5
  %10 = getelementptr inbounds nuw i8, ptr %0, i64 24
  %11 = load ptr, ptr %10, align 8, !tbaa !105
  %12 = getelementptr inbounds nuw i8, ptr %11, i64 1304
  %13 = load i8, ptr %12, align 8, !tbaa !20
  %.not63 = icmp eq i8 %13, 65
  br i1 %.not63, label %.preheader, label %18

.preheader:                                       ; preds = %9
  %.not6488 = icmp eq i64 %4, 0
  br i1 %.not6488, label %._crit_edge, label %.lr.ph

.lr.ph:                                           ; preds = %.preheader
  %14 = and i32 %2, -129
  %15 = getelementptr inbounds nuw i8, ptr %7, i64 32
  %16 = getelementptr inbounds nuw i8, ptr %1, i64 8
  %.pre = load i8, ptr %15, align 8, !tbaa !240, !range !137
  %17 = trunc nuw i8 %.pre to i1
  br label %22

18:                                               ; preds = %9, %5
  %19 = getelementptr inbounds nuw i8, ptr %1, i64 8
  %20 = load ptr, ptr %19, align 8, !tbaa !242
  %21 = tail call i32 @Curl_cwriter_write(ptr noundef %0, ptr noundef %20, i32 noundef %2, ptr noundef %3, i64 noundef %4) #10
  br label %.thread

22:                                               ; preds = %.lr.ph, %39
  %23 = phi i1 [ %17, %.lr.ph ], [ true, %39 ]
  %.05290 = phi ptr [ %3, %.lr.ph ], [ %40, %39 ]
  %.05589 = phi i64 [ %4, %.lr.ph ], [ %42, %39 ]
  br i1 %23, label %24, label %30

24:                                               ; preds = %22
  %25 = load i8, ptr %.05290, align 1, !tbaa !20
  %.not65 = icmp eq i8 %25, 10
  br i1 %.not65, label %29, label %26

26:                                               ; preds = %24
  %27 = load ptr, ptr %16, align 8, !tbaa !242
  %28 = tail call i32 @Curl_cwriter_write(ptr noundef %0, ptr noundef %27, i32 noundef %14, ptr noundef nonnull @ftp_cw_lc_write.nl, i64 noundef 1) #10
  %.not66 = icmp eq i32 %28, 0
  br i1 %.not66, label %29, label %.thread

29:                                               ; preds = %26, %24
  store i8 0, ptr %15, align 8, !tbaa !240
  br label %30

30:                                               ; preds = %29, %22
  %31 = tail call ptr @memchr(ptr noundef %.05290, i32 noundef 13, i64 noundef %.05589) #11
  %.not67 = icmp eq ptr %31, null
  br i1 %.not67, label %43, label %32

32:                                               ; preds = %30
  %33 = ptrtoint ptr %31 to i64
  %34 = ptrtoint ptr %.05290 to i64
  %35 = sub i64 %33, %34
  %.not68 = icmp eq ptr %31, %.05290
  br i1 %.not68, label %39, label %36

36:                                               ; preds = %32
  %37 = load ptr, ptr %16, align 8, !tbaa !242
  %38 = tail call i32 @Curl_cwriter_write(ptr noundef %0, ptr noundef %37, i32 noundef %14, ptr noundef %.05290, i64 noundef %35) #10
  %.not69 = icmp eq i32 %38, 0
  br i1 %.not69, label %39, label %.thread

39:                                               ; preds = %32, %36
  %40 = getelementptr inbounds nuw i8, ptr %31, i64 1
  %41 = xor i64 %35, -1
  %42 = add i64 %.05589, %41
  store i8 1, ptr %15, align 8, !tbaa !240
  %.not64 = icmp eq i64 %42, 0
  br i1 %.not64, label %._crit_edge, label %22

43:                                               ; preds = %30
  %44 = load ptr, ptr %16, align 8, !tbaa !242
  %45 = tail call i32 @Curl_cwriter_write(ptr noundef %0, ptr noundef %44, i32 noundef %2, ptr noundef %.05290, i64 noundef %.05589) #10
  br label %.thread

._crit_edge:                                      ; preds = %39, %.preheader
  %.052.lcssa = phi ptr [ %3, %.preheader ], [ %40, %39 ]
  %46 = and i32 %2, 128
  %.not71 = icmp eq i32 %46, 0
  br i1 %.not71, label %.thread, label %47

47:                                               ; preds = %._crit_edge
  %48 = getelementptr inbounds nuw i8, ptr %7, i64 32
  %49 = load i8, ptr %48, align 8, !tbaa !240, !range !137, !noundef !138
  %50 = trunc nuw i8 %49 to i1
  br i1 %50, label %51, label %55

51:                                               ; preds = %47
  store i8 0, ptr %48, align 8, !tbaa !240
  %52 = getelementptr inbounds nuw i8, ptr %1, i64 8
  %53 = load ptr, ptr %52, align 8, !tbaa !242
  %54 = tail call i32 @Curl_cwriter_write(ptr noundef %0, ptr noundef %53, i32 noundef %2, ptr noundef nonnull @ftp_cw_lc_write.nl, i64 noundef 1) #10
  br label %.thread

55:                                               ; preds = %47
  %56 = getelementptr inbounds nuw i8, ptr %1, i64 8
  %57 = load ptr, ptr %56, align 8, !tbaa !242
  %58 = tail call i32 @Curl_cwriter_write(ptr noundef %0, ptr noundef %57, i32 noundef %2, ptr noundef %.052.lcssa, i64 noundef 0) #10
  br label %.thread

.thread:                                          ; preds = %36, %26, %._crit_edge, %55, %51, %43, %18
  %.0 = phi i32 [ %21, %18 ], [ %45, %43 ], [ %54, %51 ], [ %58, %55 ], [ 0, %._crit_edge ], [ %28, %26 ], [ %38, %36 ]
  ret i32 %.0
}